target datalayout = "e-m:e-p270:32:32-p271:32:32-p272:64:64-i64:64-i128:128-f80:128-n8:16:32:64-S128"
target triple = "x86_64-pc-linux-gnu"

; Function Attrs: inlinehint mustprogress nounwind uwtable
define internal noundef i64 @_ZN8simdjson8internalL6xgetbvEv() #4 {
  %1 = alloca i32, align 4
  %2 = alloca i32, align 4
  call void @llvm.lifetime.start.p0(i64 4, ptr %1) #10
  call void @llvm.lifetime.start.p0(i64 4, ptr %2) #10
  %3 = call { i32, i32 } asm sideeffect "xgetbv\0A\09", "={ax},={dx},{cx},~{dirflag},~{fpsr},~{flags}"(i32 0) #10, !srcloc !222
  %4 = extractvalue { i32, i32 } %3, 0
  %5 = extractvalue { i32, i32 } %3, 1
  store i32 %4, ptr %1, align 4, !tbaa !16
  store i32 %5, ptr %2, align 4, !tbaa !16
  %6 = load i32, ptr %1, align 4, !tbaa !16
  %7 = zext i32 %6 to i64
  %8 = load i32, ptr %2, align 4, !tbaa !16
  %9 = zext i32 %8 to i64
  %10 = shl i64 %9, 32
  %11 = or i64 %7, %10
  call void @llvm.lifetime.end.p0(i64 4, ptr %2) #10
  call void @llvm.lifetime.end.p0(i64 4, ptr %1) #10
  ret i64 %11
}

; Function Attrs: inlinehint mustprogress nounwind uwtable
define internal void @_ZN8simdjson8internalL5cpuidEPjS1_S1_S1_(ptr noundef %0, ptr noundef %1, ptr noundef %2, ptr noundef %3) #4 {
  %5 = alloca ptr, align 8
  %6 = alloca ptr, align 8
  %7 = alloca ptr, align 8
  %8 = alloca ptr, align 8
  %9 = alloca i32, align 4
  %10 = alloca i32, align 4
  %11 = alloca i32, align 4
  %12 = alloca i32, align 4
  store ptr %0, ptr %5, align 8, !tbaa !18
  store ptr %1, ptr %6, align 8, !tbaa !18
  store ptr %2, ptr %7, align 8, !tbaa !18
  store ptr %3, ptr %8, align 8, !tbaa !18
  call void @llvm.lifetime.start.p0(i64 4, ptr %9) #10
  %13 = load ptr, ptr %5, align 8, !tbaa !18
  %14 = load i32, ptr %13, align 4, !tbaa !16
  store i32 %14, ptr %9, align 4, !tbaa !16
  call void @llvm.lifetime.start.p0(i64 4, ptr %10) #10
  call void @llvm.lifetime.start.p0(i64 4, ptr %11) #10
  %15 = load ptr, ptr %7, align 8, !tbaa !18
  %16 = load i32, ptr %15, align 4, !tbaa !16
  store i32 %16, ptr %11, align 4, !tbaa !16
  call void @llvm.lifetime.start.p0(i64 4, ptr %12) #10
  %17 = load i32, ptr %9, align 4, !tbaa !16
  %18 = load i32, ptr %11, align 4, !tbaa !16
  %19 = call { i32, i32, i32, i32 } asm sideeffect "cpuid\0A\09", "={ax},={bx},={cx},={dx},0,2,~{dirflag},~{fpsr},~{flags}"(i32 %17, i32 %18) #10, !srcloc !221
  %20 = extractvalue { i32, i32, i32, i32 } %19, 0
  %21 = extractvalue { i32, i32, i32, i32 } %19, 1
  %22 = extractvalue { i32, i32, i32, i32 } %19, 2
  %23 = extractvalue { i32, i32, i32, i32 } %19, 3
  store i32 %20, ptr %9, align 4, !tbaa !16
  store i32 %21, ptr %10, align 4, !tbaa !16
  store i32 %22, ptr %11, align 4, !tbaa !16
  store i32 %23, ptr %12, align 4, !tbaa !16
  %24 = load i32, ptr %9, align 4, !tbaa !16
  %25 = load ptr, ptr %5, align 8, !tbaa !18
  store i32 %24, ptr %25, align 4, !tbaa !16
  %26 = load i32, ptr %10, align 4, !tbaa !16
  %27 = load ptr, ptr %6, align 8, !tbaa !18
  store i32 %26, ptr %27, align 4, !tbaa !16
  %28 = load i32, ptr %11, align 4, !tbaa !16
  %29 = load ptr, ptr %7, align 8, !tbaa !18
  store i32 %28, ptr %29, align 4, !tbaa !16
  %30 = load i32, ptr %12, align 4, !tbaa !16
  %31 = load ptr, ptr %8, align 8, !tbaa !18
  store i32 %30, ptr %31, align 4, !tbaa !16
  call void @llvm.lifetime.end.p0(i64 4, ptr %12) #10
  call void @llvm.lifetime.end.p0(i64 4, ptr %11) #10
  call void @llvm.lifetime.end.p0(i64 4, ptr %10) #10
  call void @llvm.lifetime.end.p0(i64 4, ptr %9) #10
  ret void
}

; Function Attrs: inlinehint mustprogress uwtable
define internal noundef i32 @_ZN8simdjson8internalL30detect_supported_architecturesEv() #3 {
  %1 = alloca i32, align 4
  %2 = alloca i32, align 4
  %3 = alloca i32, align 4
  %4 = alloca i32, align 4
  %5 = alloca i32, align 4
  %6 = alloca i32, align 4
  %7 = alloca i32, align 4
  %8 = alloca i64, align 8
  call void @llvm.lifetime.start.p0(i64 4, ptr %2) #10
  call void @llvm.lifetime.start.p0(i64 4, ptr %3) #10
  call void @llvm.lifetime.start.p0(i64 4, ptr %4) #10
  call void @llvm.lifetime.start.p0(i64 4, ptr %5) #10
  call void @llvm.lifetime.start.p0(i64 4, ptr %6) #10
  store i32 0, ptr %6, align 4, !tbaa !16
  store i32 1, ptr %2, align 4, !tbaa !16
  store i32 0, ptr %4, align 4, !tbaa !16
  call void @_ZN8simdjson8internalL5cpuidEPjS1_S1_S1_(ptr noundef %2, ptr noundef %3, ptr noundef %4, ptr noundef %5)
  %9 = load i32, ptr %4, align 4, !tbaa !16
  %10 = and i32 %9, 1048576
  %11 = icmp ne i32 %10, 0
  br i1 %11, label %12, label %15

12:                                               ; preds = %0
  %13 = load i32, ptr %6, align 4, !tbaa !16
  %14 = or i32 %13, 8
  store i32 %14, ptr %6, align 4, !tbaa !16
  br label %17

15:                                               ; preds = %0
  %16 = load i32, ptr %6, align 4, !tbaa !16
  store i32 %16, ptr %1, align 4
  store i32 1, ptr %7, align 4
  br label %130

17:                                               ; preds = %12
  %18 = load i32, ptr %4, align 4, !tbaa !16
  %19 = and i32 %18, 2
  %20 = icmp ne i32 %19, 0
  br i1 %20, label %21, label %24

21:                                               ; preds = %17
  %22 = load i32, ptr %6, align 4, !tbaa !16
  %23 = or i32 %22, 16
  store i32 %23, ptr %6, align 4, !tbaa !16
  br label %24

24:                                               ; preds = %21, %17
  %25 = load i32, ptr %4, align 4, !tbaa !16
  %26 = and i32 %25, 201326592
  %27 = icmp ne i32 %26, 201326592
  br i1 %27, label %28, label %30

28:                                               ; preds = %24
  %29 = load i32, ptr %6, align 4, !tbaa !16
  store i32 %29, ptr %1, align 4
  store i32 1, ptr %7, align 4
  br label %130

30:                                               ; preds = %24
  call void @llvm.lifetime.start.p0(i64 8, ptr %8) #10
  %31 = call noundef i64 @_ZN8simdjson8internalL6xgetbvEv()
  store i64 %31, ptr %8, align 8, !tbaa !21
  %32 = load i64, ptr %8, align 8, !tbaa !21
  %33 = and i64 %32, 4
  %34 = icmp eq i64 %33, 0
  br i1 %34, label %35, label %37

35:                                               ; preds = %30
  %36 = load i32, ptr %6, align 4, !tbaa !16
  store i32 %36, ptr %1, align 4
  store i32 1, ptr %7, align 4
  br label %129

37:                                               ; preds = %30
  store i32 7, ptr %2, align 4, !tbaa !16
  store i32 0, ptr %4, align 4, !tbaa !16
  call void @_ZN8simdjson8internalL5cpuidEPjS1_S1_S1_(ptr noundef %2, ptr noundef %3, ptr noundef %4, ptr noundef %5)
  %38 = load i32, ptr %3, align 4, !tbaa !16
  %39 = and i32 %38, 32
  %40 = icmp ne i32 %39, 0
  br i1 %40, label %41, label %44

41:                                               ; preds = %37
  %42 = load i32, ptr %6, align 4, !tbaa !16
  %43 = or i32 %42, 4
  store i32 %43, ptr %6, align 4, !tbaa !16
  br label %44

44:                                               ; preds = %41, %37
  %45 = load i32, ptr %3, align 4, !tbaa !16
  %46 = and i32 %45, 8
  %47 = icmp ne i32 %46, 0
  br i1 %47, label %48, label %51

48:                                               ; preds = %44
  %49 = load i32, ptr %6, align 4, !tbaa !16
  %50 = or i32 %49, 32
  store i32 %50, ptr %6, align 4, !tbaa !16
  br label %51

51:                                               ; preds = %48, %44
  %52 = load i32, ptr %3, align 4, !tbaa !16
  %53 = and i32 %52, 256
  %54 = icmp ne i32 %53, 0
  br i1 %54, label %55, label %58

55:                                               ; preds = %51
  %56 = load i32, ptr %6, align 4, !tbaa !16
  %57 = or i32 %56, 64
  store i32 %57, ptr %6, align 4, !tbaa !16
  br label %58

58:                                               ; preds = %55, %51
  %59 = load i64, ptr %8, align 8, !tbaa !21
  %60 = and i64 %59, 224
  %61 = icmp eq i64 %60, 224
  br i1 %61, label %64, label %62

62:                                               ; preds = %58
  %63 = load i32, ptr %6, align 4, !tbaa !16
  store i32 %63, ptr %1, align 4
  store i32 1, ptr %7, align 4
  br label %129

64:                                               ; preds = %58
  %65 = load i32, ptr %3, align 4, !tbaa !16
  %66 = and i32 %65, 65536
  %67 = icmp ne i32 %66, 0
  br i1 %67, label %68, label %71

68:                                               ; preds = %64
  %69 = load i32, ptr %6, align 4, !tbaa !16
  %70 = or i32 %69, 256
  store i32 %70, ptr %6, align 4, !tbaa !16
  br label %71

71:                                               ; preds = %68, %64
  %72 = load i32, ptr %3, align 4, !tbaa !16
  %73 = and i32 %72, 131072
  %74 = icmp ne i32 %73, 0
  br i1 %74, label %75, label %78

75:                                               ; preds = %71
  %76 = load i32, ptr %6, align 4, !tbaa !16
  %77 = or i32 %76, 512
  store i32 %77, ptr %6, align 4, !tbaa !16
  br label %78

78:                                               ; preds = %75, %71
  %79 = load i32, ptr %3, align 4, !tbaa !16
  %80 = and i32 %79, 2097152
  %81 = icmp ne i32 %80, 0
  br i1 %81, label %82, label %85

82:                                               ; preds = %78
  %83 = load i32, ptr %6, align 4, !tbaa !16
  %84 = or i32 %83, 1024
  store i32 %84, ptr %6, align 4, !tbaa !16
  br label %85

85:                                               ; preds = %82, %78
  %86 = load i32, ptr %3, align 4, !tbaa !16
  %87 = and i32 %86, 67108864
  %88 = icmp ne i32 %87, 0
  br i1 %88, label %89, label %92

89:                                               ; preds = %85
  %90 = load i32, ptr %6, align 4, !tbaa !16
  %91 = or i32 %90, 2048
  store i32 %91, ptr %6, align 4, !tbaa !16
  br label %92

92:                                               ; preds = %89, %85
  %93 = load i32, ptr %3, align 4, !tbaa !16
  %94 = and i32 %93, 134217728
  %95 = icmp ne i32 %94, 0
  br i1 %95, label %96, label %99

96:                                               ; preds = %92
  %97 = load i32, ptr %6, align 4, !tbaa !16
  %98 = or i32 %97, 4096
  store i32 %98, ptr %6, align 4, !tbaa !16
  br label %99

99:                                               ; preds = %96, %92
  %100 = load i32, ptr %3, align 4, !tbaa !16
  %101 = and i32 %100, 268435456
  %102 = icmp ne i32 %101, 0
  br i1 %102, label %103, label %106

103:                                              ; preds = %99
  %104 = load i32, ptr %6, align 4, !tbaa !16
  %105 = or i32 %104, 8192
  store i32 %105, ptr %6, align 4, !tbaa !16
  br label %106

106:                                              ; preds = %103, %99
  %107 = load i32, ptr %3, align 4, !tbaa !16
  %108 = and i32 %107, 1073741824
  %109 = icmp ne i32 %108, 0
  br i1 %109, label %110, label %113

110:                                              ; preds = %106
  %111 = load i32, ptr %6, align 4, !tbaa !16
  %112 = or i32 %111, 16384
  store i32 %112, ptr %6, align 4, !tbaa !16
  br label %113

113:                                              ; preds = %110, %106
  %114 = load i32, ptr %3, align 4, !tbaa !16
  %115 = and i32 %114, -2147483648
  %116 = icmp ne i32 %115, 0
  br i1 %116, label %117, label %120

117:                                              ; preds = %113
  %118 = load i32, ptr %6, align 4, !tbaa !16
  %119 = or i32 %118, 32768
  store i32 %119, ptr %6, align 4, !tbaa !16
  br label %120

120:                                              ; preds = %117, %113
  %121 = load i32, ptr %4, align 4, !tbaa !16
  %122 = and i32 %121, 64
  %123 = icmp ne i32 %122, 0
  br i1 %123, label %124, label %127

124:                                              ; preds = %120
  %125 = load i32, ptr %6, align 4, !tbaa !16
  %126 = or i32 %125, 65536
  store i32 %126, ptr %6, align 4, !tbaa !16
  br label %127

127:                                              ; preds = %124, %120
  %128 = load i32, ptr %6, align 4, !tbaa !16
  store i32 %128, ptr %1, align 4
  store i32 1, ptr %7, align 4
  br label %129

129:                                              ; preds = %127, %62, %35
  call void @llvm.lifetime.end.p0(i64 8, ptr %8) #10
  br label %130

130:                                              ; preds = %129, %28, %15
  call void @llvm.lifetime.end.p0(i64 4, ptr %6) #10
  call void @llvm.lifetime.end.p0(i64 4, ptr %5) #10
  call void @llvm.lifetime.end.p0(i64 4, ptr %4) #10
  call void @llvm.lifetime.end.p0(i64 4, ptr %3) #10
  call void @llvm.lifetime.end.p0(i64 4, ptr %2) #10
  %131 = load i32, ptr %1, align 4
  ret i32 %131
}

; Function Attrs: mustprogress uwtable
define dso_local noundef zeroext i1 @_ZNK8simdjson14implementation27supported_by_runtime_systemEv(ptr noundef nonnull align 8 dereferenceable(44) %0) #0 align 2 {
  %2 = alloca ptr, align 8
  %3 = alloca i32, align 4
  %4 = alloca i32, align 4
  store ptr %0, ptr %2, align 8, !tbaa !60
  %5 = load ptr, ptr %2, align 8
  call void @llvm.lifetime.start.p0(i64 4, ptr %3) #10
  %6 = load ptr, ptr %5, align 8, !tbaa !62
  %7 = getelementptr inbounds ptr, ptr %6, i64 2
  %8 = load ptr, ptr %7, align 8
  %9 = call noundef i32 %8(ptr noundef nonnull align 8 dereferenceable(44) %5)
  store i32 %9, ptr %3, align 4, !tbaa !16
  call void @llvm.lifetime.start.p0(i64 4, ptr %4) #10
  %10 = call noundef i32 @_ZN8simdjson8internalL30detect_supported_architecturesEv()
  store i32 %10, ptr %4, align 4, !tbaa !16
  %11 = load i32, ptr %4, align 4, !tbaa !16
  %12 = load i32, ptr %3, align 4, !tbaa !16
  %13 = and i32 %11, %12
  %14 = load i32, ptr %3, align 4, !tbaa !16
  %15 = icmp eq i32 %13, %14
  call void @llvm.lifetime.end.p0(i64 4, ptr %4) #10
  call void @llvm.lifetime.end.p0(i64 4, ptr %3) #10
  ret i1 %15
}