; Function Attrs: mustprogress uwtable
define dso_local noundef zeroext i1 @_ZNK8simdjson14implementation27supported_by_runtime_systemEv(ptr noundef nonnull align 8 dereferenceable(44) %0) local_unnamed_addr #0 align 2 {
  %2 = load ptr, ptr %0, align 8, !tbaa !47
  %3 = getelementptr inbounds nuw i8, ptr %2, i64 16
  %4 = load ptr, ptr %3, align 8
  %5 = tail call noundef i32 %4(ptr noundef nonnull align 8 dereferenceable(44) %0)
  %6 = tail call { i32, i32, i32, i32 } asm sideeffect "cpuid\0A\09", "={ax},={bx},={cx},={dx},0,2,~{dirflag},~{fpsr},~{flags}"(i32 1, i32 0) #45, !srcloc !49
  %7 = extractvalue { i32, i32, i32, i32 } %6, 2
  %8 = and i32 %7, 1048576
  %.not.i = icmp eq i32 %8, 0
  br i1 %.not.i, label %_ZN8simdjson8internalL30detect_supported_architecturesEv.exit, label %9

9:                                                ; preds = %1
  %10 = and i32 %7, 2
  %.not24.i = icmp eq i32 %10, 0
  %spec.select.i = select i1 %.not24.i, i32 8, i32 24
  %11 = and i32 %7, 201326592
  %.not25.i = icmp eq i32 %11, 201326592
  br i1 %.not25.i, label %12, label %_ZN8simdjson8internalL30detect_supported_architecturesEv.exit

12:                                               ; preds = %9
  %13 = tail call { i32, i32 } asm sideeffect "xgetbv\0A\09", "={ax},={dx},{cx},~{dirflag},~{fpsr},~{flags}"(i32 0) #45, !srcloc !50
  %14 = extractvalue { i32, i32 } %13, 0
  %15 = zext i32 %14 to i64
  %16 = and i64 %15, 4
  %17 = icmp eq i64 %16, 0
  br i1 %17, label %_ZN8simdjson8internalL30detect_supported_architecturesEv.exit, label %18

18:                                               ; preds = %12
  %19 = tail call { i32, i32, i32, i32 } asm sideeffect "cpuid\0A\09", "={ax},={bx},={cx},={dx},0,2,~{dirflag},~{fpsr},~{flags}"(i32 7, i32 0) #45, !srcloc !49
  %20 = extractvalue { i32, i32, i32, i32 } %19, 1
  %21 = lshr i32 %20, 3
  %22 = and i32 %21, 4
  %23 = shl i32 %20, 2
  %24 = and i32 %23, 32
  %25 = lshr i32 %20, 2
  %26 = and i32 %25, 64
  %27 = or disjoint i32 %22, %24
  %28 = or disjoint i32 %27, %26
  %.3.i = or disjoint i32 %28, %spec.select.i
  %29 = and i64 %15, 224
  %30 = icmp eq i64 %29, 224
  br i1 %30, label %31, label %_ZN8simdjson8internalL30detect_supported_architecturesEv.exit

31:                                               ; preds = %18
  %32 = extractvalue { i32, i32, i32, i32 } %19, 2
  %33 = lshr i32 %20, 8
  %34 = and i32 %33, 768
  %35 = lshr i32 %20, 11
  %36 = and i32 %35, 1024
  %37 = or disjoint i32 %34, %36
  %38 = lshr i32 %20, 15
  %39 = and i32 %38, 14336
  %40 = or disjoint i32 %37, %39
  %41 = lshr i32 %20, 16
  %42 = and i32 %41, 49152
  %43 = or disjoint i32 %40, %42
  %44 = shl i32 %32, 10
  %45 = and i32 %44, 65536
  %46 = or disjoint i32 %43, %45
  %.12.i = or disjoint i32 %46, %.3.i
  br label %_ZN8simdjson8internalL30detect_supported_architecturesEv.exit

_ZN8simdjson8internalL30detect_supported_architecturesEv.exit: ; preds = %1, %9, %12, %18, %31
  %.0.i = phi i32 [ 0, %1 ], [ %spec.select.i, %9 ], [ %.12.i, %31 ], [ %spec.select.i, %12 ], [ %.3.i, %18 ]
  %47 = and i32 %.0.i, %5
  %48 = icmp eq i32 %47, %5
  ret i1 %48
}